; Function Attrs: nounwind uwtable
define hidden i32 @ma_vfs_tell(ptr noundef %0, ptr noundef %1, ptr noundef %2) local_unnamed_addr #7 {
  %4 = icmp eq ptr %2, null
  br i1 %4, label %14, label %5

5:                                                ; preds = %3
  store i64 0, ptr %2, align 8
  %6 = icmp eq ptr %0, null
  %7 = icmp eq ptr %1, null
  %or.cond = or i1 %6, %7
  br i1 %or.cond, label %14, label %8

8:                                                ; preds = %5
  %9 = getelementptr inbounds nuw i8, ptr %0, i64 48
  %10 = load ptr, ptr %9, align 8
  %11 = icmp eq ptr %10, null
  br i1 %11, label %14, label %12

12:                                               ; preds = %8
  %13 = tail call i32 %10(ptr noundef nonnull %0, ptr noundef nonnull %1, ptr noundef nonnull %2) #72
  br label %14

14:                                               ; preds = %8, %5, %3, %12
  %.0 = phi i32 [ %13, %12 ], [ -2, %3 ], [ -2, %5 ], [ -29, %8 ]
  ret i32 %.0
}